target datalayout = "e-m:e-p270:32:32-p271:32:32-p272:64:64-i64:64-i128:128-f80:128-n8:16:32:64-S128"
target triple = "x86_64-pc-linux-gnu"

%struct.RangeBound = type { i64, i8, i8, i8 }
%struct.FmgrInfo = type { ptr, i32, i16, i8, i8, i8, ptr, ptr, ptr }
%struct.TypeCacheEntry = type { i32, i32, i16, i8, i8, i8, i8, i32, i32, i32, i32, i32, i32, i32, i32, i32, i32, i32, i32, i32, i32, %struct.FmgrInfo, %struct.FmgrInfo, %struct.FmgrInfo, %struct.FmgrInfo, ptr, i64, ptr, i32, i32, %struct.FmgrInfo, %struct.FmgrInfo, %struct.FmgrInfo, ptr, i32, i32, ptr, i32, ptr, ptr }

; Function Attrs: inlinehint nounwind uwtable
define internal i32 @DatumGetInt32(i64 noundef %0) #2 {
  %2 = alloca i64, align 8
  store i64 %0, ptr %2, align 8
  %3 = load i64, ptr %2, align 8
  %4 = trunc i64 %3 to i32
  ret i32 %4
}

; Function Attrs: nounwind uwtable
define dso_local zeroext i1 @range_contains_elem_internal(ptr noundef %0, ptr noundef %1, i64 noundef %2) #0 {
  %4 = alloca i1, align 1
  %5 = alloca ptr, align 8
  %6 = alloca ptr, align 8
  %7 = alloca i64, align 8
  %8 = alloca %struct.RangeBound, align 8
  %9 = alloca %struct.RangeBound, align 8
  %10 = alloca i8, align 1
  %11 = alloca i32, align 4
  %12 = alloca i32, align 4
  store ptr %0, ptr %5, align 8
  store ptr %1, ptr %6, align 8
  store i64 %2, ptr %7, align 8
  call void @llvm.lifetime.start.p0(i64 16, ptr %8) #10
  call void @llvm.lifetime.start.p0(i64 16, ptr %9) #10
  call void @llvm.lifetime.start.p0(i64 1, ptr %10) #10
  call void @llvm.lifetime.start.p0(i64 4, ptr %11) #10
  %13 = load ptr, ptr %5, align 8
  %14 = load ptr, ptr %6, align 8
  call void @range_deserialize(ptr noundef %13, ptr noundef %14, ptr noundef %8, ptr noundef %9, ptr noundef %10)
  %15 = load i8, ptr %10, align 1, !range !7, !noundef !8
  %16 = trunc i8 %15 to i1
  br i1 %16, label %17, label %18

17:                                               ; preds = %3
  store i1 false, ptr %4, align 1
  store i32 1, ptr %12, align 4
  br label %73

18:                                               ; preds = %3
  %19 = getelementptr inbounds nuw %struct.RangeBound, ptr %8, i32 0, i32 1
  %20 = load i8, ptr %19, align 8, !range !7, !noundef !8
  %21 = trunc i8 %20 to i1
  br i1 %21, label %45, label %22

22:                                               ; preds = %18
  %23 = load ptr, ptr %5, align 8
  %24 = getelementptr inbounds nuw %struct.TypeCacheEntry, ptr %23, i32 0, i32 30
  %25 = load ptr, ptr %5, align 8
  %26 = getelementptr inbounds nuw %struct.TypeCacheEntry, ptr %25, i32 0, i32 29
  %27 = load i32, ptr %26, align 4
  %28 = getelementptr inbounds nuw %struct.RangeBound, ptr %8, i32 0, i32 0
  %29 = load i64, ptr %28, align 8
  %30 = load i64, ptr %7, align 8
  %31 = call i64 @FunctionCall2Coll(ptr noundef %24, i32 noundef %27, i64 noundef %29, i64 noundef %30)
  %32 = call i32 @DatumGetInt32(i64 noundef %31)
  store i32 %32, ptr %11, align 4
  %33 = load i32, ptr %11, align 4
  %34 = icmp sgt i32 %33, 0
  br i1 %34, label %35, label %36

35:                                               ; preds = %22
  store i1 false, ptr %4, align 1
  store i32 1, ptr %12, align 4
  br label %73

36:                                               ; preds = %22
  %37 = load i32, ptr %11, align 4
  %38 = icmp eq i32 %37, 0
  br i1 %38, label %39, label %44

39:                                               ; preds = %36
  %40 = getelementptr inbounds nuw %struct.RangeBound, ptr %8, i32 0, i32 2
  %41 = load i8, ptr %40, align 1, !range !7, !noundef !8
  %42 = trunc i8 %41 to i1
  br i1 %42, label %44, label %43

43:                                               ; preds = %39
  store i1 false, ptr %4, align 1
  store i32 1, ptr %12, align 4
  br label %73

44:                                               ; preds = %39, %36
  br label %45

45:                                               ; preds = %44, %18
  %46 = getelementptr inbounds nuw %struct.RangeBound, ptr %9, i32 0, i32 1
  %47 = load i8, ptr %46, align 8, !range !7, !noundef !8
  %48 = trunc i8 %47 to i1
  br i1 %48, label %72, label %49

49:                                               ; preds = %45
  %50 = load ptr, ptr %5, align 8
  %51 = getelementptr inbounds nuw %struct.TypeCacheEntry, ptr %50, i32 0, i32 30
  %52 = load ptr, ptr %5, align 8
  %53 = getelementptr inbounds nuw %struct.TypeCacheEntry, ptr %52, i32 0, i32 29
  %54 = load i32, ptr %53, align 4
  %55 = getelementptr inbounds nuw %struct.RangeBound, ptr %9, i32 0, i32 0
  %56 = load i64, ptr %55, align 8
  %57 = load i64, ptr %7, align 8
  %58 = call i64 @FunctionCall2Coll(ptr noundef %51, i32 noundef %54, i64 noundef %56, i64 noundef %57)
  %59 = call i32 @DatumGetInt32(i64 noundef %58)
  store i32 %59, ptr %11, align 4
  %60 = load i32, ptr %11, align 4
  %61 = icmp slt i32 %60, 0
  br i1 %61, label %62, label %63

62:                                               ; preds = %49
  store i1 false, ptr %4, align 1
  store i32 1, ptr %12, align 4
  br label %73

63:                                               ; preds = %49
  %64 = load i32, ptr %11, align 4
  %65 = icmp eq i32 %64, 0
  br i1 %65, label %66, label %71

66:                                               ; preds = %63
  %67 = getelementptr inbounds nuw %struct.RangeBound, ptr %9, i32 0, i32 2
  %68 = load i8, ptr %67, align 1, !range !7, !noundef !8
  %69 = trunc i8 %68 to i1
  br i1 %69, label %71, label %70

70:                                               ; preds = %66
  store i1 false, ptr %4, align 1
  store i32 1, ptr %12, align 4
  br label %73

71:                                               ; preds = %66, %63
  br label %72

72:                                               ; preds = %71, %45
  store i1 true, ptr %4, align 1
  store i32 1, ptr %12, align 4
  br label %73

73:                                               ; preds = %72, %70, %62, %43, %35, %17
  call void @llvm.lifetime.end.p0(i64 4, ptr %11) #10
  call void @llvm.lifetime.end.p0(i64 1, ptr %10) #10
  call void @llvm.lifetime.end.p0(i64 16, ptr %9) #10
  call void @llvm.lifetime.end.p0(i64 16, ptr %8) #10
  %74 = load i1, ptr %4, align 1
  ret i1 %74
}