; Function Attrs: nounwind uwtable
define dso_local noundef zeroext i1 @range_contains_elem_internal(ptr noundef %0, ptr noundef %1, i64 noundef %2) local_unnamed_addr #0 {
  %4 = alloca %struct.RangeBound, align 8
  %5 = alloca %struct.RangeBound, align 8
  %6 = alloca i8, align 1
  call void @llvm.lifetime.start.p0(i64 16, ptr nonnull %4) #14
  call void @llvm.lifetime.start.p0(i64 16, ptr nonnull %5) #14
  call void @llvm.lifetime.start.p0(i64 1, ptr nonnull %6) #14
  call void @range_deserialize(ptr noundef %0, ptr noundef %1, ptr noundef nonnull %4, ptr noundef nonnull %5, ptr noundef nonnull %6)
  %7 = load i8, ptr %6, align 1, !range !7, !noundef !8
  %8 = trunc nuw i8 %7 to i1
  br i1 %8, label %46, label %9

9:                                                ; preds = %3
  %10 = getelementptr inbounds nuw i8, ptr %4, i64 8
  %11 = load i8, ptr %10, align 8, !range !7, !noundef !8
  %12 = trunc nuw i8 %11 to i1
  br i1 %12, label %27, label %13

13:                                               ; preds = %9
  %14 = getelementptr inbounds nuw i8, ptr %0, i64 296
  %15 = getelementptr inbounds nuw i8, ptr %0, i64 292
  %16 = load i32, ptr %15, align 4
  %17 = load i64, ptr %4, align 8
  %18 = tail call i64 @FunctionCall2Coll(ptr noundef nonnull %14, i32 noundef %16, i64 noundef %17, i64 noundef %2) #14
  %19 = trunc i64 %18 to i32
  %20 = icmp sgt i32 %19, 0
  br i1 %20, label %46, label %21

21:                                               ; preds = %13
  %22 = icmp eq i32 %19, 0
  br i1 %22, label %23, label %27

23:                                               ; preds = %21
  %24 = getelementptr inbounds nuw i8, ptr %4, i64 9
  %25 = load i8, ptr %24, align 1, !range !7, !noundef !8
  %26 = trunc nuw i8 %25 to i1
  br i1 %26, label %27, label %46

27:                                               ; preds = %21, %23, %9
  %28 = getelementptr inbounds nuw i8, ptr %5, i64 8
  %29 = load i8, ptr %28, align 8, !range !7, !noundef !8
  %30 = trunc nuw i8 %29 to i1
  br i1 %30, label %45, label %31

31:                                               ; preds = %27
  %32 = getelementptr inbounds nuw i8, ptr %0, i64 296
  %33 = getelementptr inbounds nuw i8, ptr %0, i64 292
  %34 = load i32, ptr %33, align 4
  %35 = load i64, ptr %5, align 8
  %36 = tail call i64 @FunctionCall2Coll(ptr noundef nonnull %32, i32 noundef %34, i64 noundef %35, i64 noundef %2) #14
  %37 = trunc i64 %36 to i32
  %38 = icmp slt i32 %37, 0
  br i1 %38, label %46, label %39

39:                                               ; preds = %31
  %40 = icmp eq i32 %37, 0
  br i1 %40, label %41, label %45

41:                                               ; preds = %39
  %42 = getelementptr inbounds nuw i8, ptr %5, i64 9
  %43 = load i8, ptr %42, align 1, !range !7, !noundef !8
  %44 = trunc nuw i8 %43 to i1
  br i1 %44, label %45, label %46

45:                                               ; preds = %39, %41, %27
  br label %46

46:                                               ; preds = %41, %31, %23, %13, %3, %45
  %.0 = phi i1 [ true, %45 ], [ false, %3 ], [ false, %13 ], [ false, %23 ], [ false, %31 ], [ false, %41 ]
  call void @llvm.lifetime.end.p0(i64 1, ptr nonnull %6) #14
  call void @llvm.lifetime.end.p0(i64 16, ptr nonnull %5) #14
  call void @llvm.lifetime.end.p0(i64 16, ptr nonnull %4) #14
  ret i1 %.0
}